target datalayout = "e-m:e-p270:32:32-p271:32:32-p272:64:64-i64:64-i128:128-f80:128-n8:16:32:64-S128"
target triple = "x86_64-pc-linux-gnu"

%class.symbol = type { ptr }
%"class.std::__cxx11::basic_string" = type { %"struct.std::__cxx11::basic_string<char>::_Alloc_hider", i64, %union.anon }
%"struct.std::__cxx11::basic_string<char>::_Alloc_hider" = type { ptr }
%union.anon = type { i64, [8 x i8] }
%class.smt_renaming = type { %class.map, %class.map.0 }
%class.map = type { %class.table2map }
%class.table2map = type { %class.core_hashtable }
%class.core_hashtable = type <{ ptr, i32, i32, i32, [4 x i8] }>
%class.map.0 = type { %class.table2map.1 }
%class.table2map.1 = type { %class.core_hashtable.2 }
%class.core_hashtable.2 = type <{ ptr, i32, i32, i32, [4 x i8] }>
%class.ast_smt_pp = type <{ ptr, %class.ref_vector, %class.ref_vector, %class.symbol, %class.symbol, %class.symbol, %class.symbol, %class.symbol, %"class.std::__cxx11::basic_string", i32, [4 x i8], %"class.ast_smt_pp::is_declared", ptr, i8, [7 x i8] }>
%class.ref_vector = type { %class.ref_vector_core }
%class.ref_vector_core = type { %class.ref_manager_wrapper, %class.ptr_vector }
%class.ref_manager_wrapper = type { ptr }
%class.ptr_vector = type { %class.vector }
%class.vector = type { ptr }
%"class.ast_smt_pp::is_declared" = type { ptr }
%class.ptr_vector.36 = type { %class.vector.37 }
%class.vector.37 = type { ptr }
%class.smt_printer = type { ptr, ptr, ptr, ptr, i32, i32, ptr, %class.ptr_vector, %class.ast_mark, i32, %class.arith_util, %class.bv_util, %class.seq_util, %class.fpa_util, i32, i32, i32, i32, i32, i32, i32, %class.symbol, %class.symbol, i8, i8, ptr }
%class.ast_mark = type { ptr, %class.obj_mark, %class.obj_mark.38 }
%class.obj_mark = type { [8 x i8], %class.bit_vector }
%class.bit_vector = type { i32, i32, ptr }
%class.obj_mark.38 = type { [8 x i8], %class.bit_vector }
%class.arith_util = type { ptr, ptr }
%class.bv_util = type { %class.bv_recognizers, ptr, ptr }
%class.bv_recognizers = type { i32 }
%class.seq_util = type { ptr, ptr, ptr, i32, [4 x i8], %"class.seq_util::str", %"class.seq_util::rex" }
%"class.seq_util::str" = type <{ ptr, ptr, i32, [4 x i8] }>
%"class.seq_util::rex" = type { ptr, ptr, i32, %class.vector.39, %class.ref_vector, %"struct.seq_util::rex::info", %"struct.seq_util::rex::info" }
%class.vector.39 = type { ptr }
%"struct.seq_util::rex::info" = type { i32, i8, i32, i32 }
%class.fpa_util = type { ptr, ptr, i32, %class.arith_util, %class.bv_util }

@_ZN12smt_renamingC1Ev = hidden unnamed_addr alias void (ptr), ptr @_ZN12smt_renamingC2Ev

; Function Attrs: mustprogress nounwind uwtable
define linkonce_odr hidden void @_ZN6vectorIP10quantifierLb0EjEC2Ev(ptr noundef nonnull align 8 dereferenceable(8) %0) unnamed_addr #6 comdat align 2 {
  %2 = alloca ptr, align 8
  store ptr %0, ptr %2, align 8, !tbaa !143
  %3 = load ptr, ptr %2, align 8
  %4 = getelementptr inbounds nuw %class.vector.37, ptr %3, i32 0, i32 0
  store ptr null, ptr %4, align 8, !tbaa !286
  ret void
}

; Function Attrs: mustprogress nounwind uwtable
define linkonce_odr hidden void @_ZN10ptr_vectorI10quantifierEC2Ev(ptr noundef nonnull align 8 dereferenceable(8) %0) unnamed_addr #6 comdat align 2 {
  %2 = alloca ptr, align 8
  store ptr %0, ptr %2, align 8, !tbaa !88
  %3 = load ptr, ptr %2, align 8
  call void @_ZN6vectorIP10quantifierLb0EjEC2Ev(ptr noundef nonnull align 8 dereferenceable(8) %3) #3
  ret void
}

; Function Attrs: mustprogress uwtable
define hidden void @_ZN10ast_smt_pp17display_sort_declERSoP4sortR8ast_mark(ptr noundef nonnull align 8 dereferenceable(137) %0, ptr noundef nonnull align 8 dereferenceable(8) %1, ptr noundef %2, ptr noundef nonnull align 8 dereferenceable(56) %3) #4 align 2 personality ptr @__gxx_personality_v0 {
  %5 = alloca ptr, align 8
  %6 = alloca ptr, align 8
  %7 = alloca ptr, align 8
  %8 = alloca ptr, align 8
  %9 = alloca %class.ptr_vector.36, align 8
  %10 = alloca %class.smt_renaming, align 8
  %11 = alloca ptr, align 8
  %12 = alloca i32, align 4
  %13 = alloca %class.smt_printer, align 8
  %14 = alloca %class.symbol, align 8
  store ptr %0, ptr %5, align 8, !tbaa !58
  store ptr %1, ptr %6, align 8, !tbaa !25
  store ptr %2, ptr %7, align 8, !tbaa !150
  store ptr %3, ptr %8, align 8, !tbaa !152
  %15 = load ptr, ptr %5, align 8
  call void @llvm.lifetime.start.p0(i64 8, ptr %9) #3
  call void @_ZN10ptr_vectorI10quantifierEC2Ev(ptr noundef nonnull align 8 dereferenceable(8) %9) #3
  call void @llvm.lifetime.start.p0(i64 48, ptr %10) #3
  invoke void @_ZN12smt_renamingC1Ev(ptr noundef nonnull align 8 dereferenceable(48) %10)
          to label %16 unwind label %30

16:                                               ; preds = %4
  call void @llvm.lifetime.start.p0(i64 424, ptr %13) #3
  %17 = load ptr, ptr %6, align 8, !tbaa !25
  %18 = getelementptr inbounds nuw %class.ast_smt_pp, ptr %15, i32 0, i32 0
  %19 = load ptr, ptr %18, align 8, !tbaa !87
  %20 = getelementptr inbounds nuw %class.ast_smt_pp, ptr %15, i32 0, i32 7
  call void @llvm.memcpy.p0.p0.i64(ptr align 8 %14, ptr align 8 %20, i64 8, i1 false), !tbaa.struct !13
  %21 = getelementptr inbounds nuw %class.ast_smt_pp, ptr %15, i32 0, i32 13
  %22 = load i8, ptr %21, align 8, !tbaa !77, !range !46, !noundef !47
  %23 = trunc i8 %22 to i1
  %24 = getelementptr inbounds nuw %class.symbol, ptr %14, i32 0, i32 0
  %25 = load ptr, ptr %24, align 8
  invoke void @_ZN11smt_printerC2ERSoR11ast_managerR10ptr_vectorI10quantifierER12smt_renaming6symbolbbjjPKPKc(ptr noundef nonnull align 8 dereferenceable(424) %13, ptr noundef nonnull align 8 dereferenceable(8) %17, ptr noundef nonnull align 8 dereferenceable(976) %19, ptr noundef nonnull align 8 dereferenceable(8) %9, ptr noundef nonnull align 8 dereferenceable(48) %10, ptr %25, i1 noundef zeroext false, i1 noundef zeroext %23, i32 noundef 0, i32 noundef 0, ptr noundef null)
          to label %26 unwind label %34

26:                                               ; preds = %16
  %27 = load ptr, ptr %8, align 8, !tbaa !152
  %28 = load ptr, ptr %7, align 8, !tbaa !150
  invoke void @_ZN11smt_printer12pp_sort_declER8ast_markP4sort(ptr noundef nonnull align 8 dereferenceable(424) %13, ptr noundef nonnull align 8 dereferenceable(56) %27, ptr noundef %28)
          to label %29 unwind label %38

29:                                               ; preds = %26
  call void @_ZN11smt_printerD2Ev(ptr noundef nonnull align 8 dereferenceable(424) %13) #3
  call void @llvm.lifetime.end.p0(i64 424, ptr %13) #3
  call void @_ZN12smt_renamingD2Ev(ptr noundef nonnull align 8 dereferenceable(48) %10) #3
  call void @llvm.lifetime.end.p0(i64 48, ptr %10) #3
  call void @_ZN6vectorIP10quantifierLb0EjED2Ev(ptr noundef nonnull align 8 dereferenceable(8) %9) #3
  call void @llvm.lifetime.end.p0(i64 8, ptr %9) #3
  ret void

30:                                               ; preds = %4
  %31 = landingpad { ptr, i32 }
          cleanup
  %32 = extractvalue { ptr, i32 } %31, 0
  store ptr %32, ptr %11, align 8
  %33 = extractvalue { ptr, i32 } %31, 1
  store i32 %33, ptr %12, align 4
  br label %43

34:                                               ; preds = %16
  %35 = landingpad { ptr, i32 }
          cleanup
  %36 = extractvalue { ptr, i32 } %35, 0
  store ptr %36, ptr %11, align 8
  %37 = extractvalue { ptr, i32 } %35, 1
  store i32 %37, ptr %12, align 4
  br label %42

38:                                               ; preds = %26
  %39 = landingpad { ptr, i32 }
          cleanup
  %40 = extractvalue { ptr, i32 } %39, 0
  store ptr %40, ptr %11, align 8
  %41 = extractvalue { ptr, i32 } %39, 1
  store i32 %41, ptr %12, align 4
  call void @_ZN11smt_printerD2Ev(ptr noundef nonnull align 8 dereferenceable(424) %13) #3
  br label %42

42:                                               ; preds = %38, %34
  call void @llvm.lifetime.end.p0(i64 424, ptr %13) #3
  call void @_ZN12smt_renamingD2Ev(ptr noundef nonnull align 8 dereferenceable(48) %10) #3
  br label %43

43:                                               ; preds = %42, %30
  call void @llvm.lifetime.end.p0(i64 48, ptr %10) #3
  call void @_ZN6vectorIP10quantifierLb0EjED2Ev(ptr noundef nonnull align 8 dereferenceable(8) %9) #3
  call void @llvm.lifetime.end.p0(i64 8, ptr %9) #3
  br label %44

44:                                               ; preds = %43
  %45 = load ptr, ptr %11, align 8
  %46 = load i32, ptr %12, align 4
  %47 = insertvalue { ptr, i32 } poison, ptr %45, 0
  %48 = insertvalue { ptr, i32 } %47, i32 %46, 1
  resume { ptr, i32 } %48
}