; Function Attrs: mustprogress uwtable
define hidden void @_ZN10ast_smt_pp17display_sort_declERSoP4sortR8ast_mark(ptr noundef nonnull readonly align 8 captures(none) dereferenceable(137) %0, ptr noundef nonnull align 8 dereferenceable(8) %1, ptr noundef %2, ptr noundef nonnull align 8 dereferenceable(56) %3) local_unnamed_addr #3 align 2 personality ptr @__gxx_personality_v0 {
  %5 = alloca %class.ptr_vector.36, align 8
  %6 = alloca %class.smt_renaming, align 8
  %7 = alloca %class.smt_printer, align 8
  call void @llvm.lifetime.start.p0(i64 8, ptr nonnull %5) #24
  store ptr null, ptr %5, align 8, !tbaa !100
  call void @llvm.lifetime.start.p0(i64 48, ptr nonnull %6) #24
  invoke void @_ZN12smt_renamingC2Ev(ptr noundef nonnull align 8 dereferenceable(48) %6)
          to label %8 unwind label %35

8:                                                ; preds = %4
  call void @llvm.lifetime.start.p0(i64 424, ptr nonnull %7) #24
  %9 = load ptr, ptr %0, align 8, !tbaa !109
  %10 = getelementptr inbounds nuw i8, ptr %0, i64 72
  %.sroa.0.0.copyload = load ptr, ptr %10, align 8, !tbaa !6
  %11 = getelementptr inbounds nuw i8, ptr %0, i64 136
  %12 = load i8, ptr %11, align 8, !tbaa !92, !range !110, !noundef !111
  %13 = trunc nuw i8 %12 to i1
  invoke void @_ZN11smt_printerC2ERSoR11ast_managerR10ptr_vectorI10quantifierER12smt_renaming6symbolbbjjPKPKc(ptr noundef nonnull align 8 dereferenceable(424) %7, ptr noundef nonnull align 8 dereferenceable(8) %1, ptr noundef nonnull align 8 dereferenceable(976) %9, ptr noundef nonnull align 8 dereferenceable(8) %5, ptr noundef nonnull align 8 dereferenceable(48) %6, ptr %.sroa.0.0.copyload, i1 noundef zeroext false, i1 noundef zeroext %13, i32 noundef 0, i32 noundef 0, ptr noundef null)
          to label %14 unwind label %37

14:                                               ; preds = %8
  invoke void @_ZN11smt_printer12pp_sort_declER8ast_markP4sort(ptr noundef nonnull align 8 dereferenceable(424) %7, ptr noundef nonnull align 8 dereferenceable(56) %3, ptr noundef %2)
          to label %15 unwind label %39

15:                                               ; preds = %14
  call void @_ZN11smt_printerD2Ev(ptr noundef nonnull align 8 dereferenceable(424) %7) #24
  call void @llvm.lifetime.end.p0(i64 424, ptr nonnull %7) #24
  %16 = getelementptr inbounds nuw i8, ptr %6, i64 24
  %17 = load ptr, ptr %16, align 8, !tbaa !50
  %18 = icmp eq ptr %17, null
  br i1 %18, label %_ZN9table2mapI17default_map_entryI6symbolS1_E16symbol_hash_proc14symbol_eq_procED2Ev.exit.i, label %19

19:                                               ; preds = %15
  invoke void @_ZN6memory10deallocateEPv(ptr noundef nonnull %17)
          to label %_ZN9table2mapI17default_map_entryI6symbolS1_E16symbol_hash_proc14symbol_eq_procED2Ev.exit.i unwind label %20

20:                                               ; preds = %19
  %21 = landingpad { ptr, i32 }
          catch ptr null
  %22 = extractvalue { ptr, i32 } %21, 0
  call void @__clang_call_terminate(ptr %22) #27
  unreachable

_ZN9table2mapI17default_map_entryI6symbolS1_E16symbol_hash_proc14symbol_eq_procED2Ev.exit.i: ; preds = %19, %15
  store ptr null, ptr %16, align 8, !tbaa !50
  %23 = load ptr, ptr %6, align 8, !tbaa !43
  %24 = icmp eq ptr %23, null
  br i1 %24, label %_ZN12smt_renamingD2Ev.exit, label %25

25:                                               ; preds = %_ZN9table2mapI17default_map_entryI6symbolS1_E16symbol_hash_proc14symbol_eq_procED2Ev.exit.i
  invoke void @_ZN6memory10deallocateEPv(ptr noundef nonnull %23)
          to label %_ZN12smt_renamingD2Ev.exit unwind label %26

26:                                               ; preds = %25
  %27 = landingpad { ptr, i32 }
          catch ptr null
  %28 = extractvalue { ptr, i32 } %27, 0
  call void @__clang_call_terminate(ptr %28) #27
  unreachable

_ZN12smt_renamingD2Ev.exit:                       ; preds = %_ZN9table2mapI17default_map_entryI6symbolS1_E16symbol_hash_proc14symbol_eq_procED2Ev.exit.i, %25
  call void @llvm.lifetime.end.p0(i64 48, ptr nonnull %6) #24
  %29 = load ptr, ptr %5, align 8, !tbaa !100
  %.not.i.i = icmp eq ptr %29, null
  br i1 %.not.i.i, label %_ZN6vectorIP10quantifierLb0EjED2Ev.exit, label %30

30:                                               ; preds = %_ZN12smt_renamingD2Ev.exit
  %31 = getelementptr inbounds i8, ptr %29, i64 -8
  invoke void @_ZN6memory10deallocateEPv(ptr noundef nonnull %31)
          to label %_ZN6vectorIP10quantifierLb0EjED2Ev.exit unwind label %32

32:                                               ; preds = %30
  %33 = landingpad { ptr, i32 }
          catch ptr null
  %34 = extractvalue { ptr, i32 } %33, 0
  call void @__clang_call_terminate(ptr %34) #27
  unreachable

_ZN6vectorIP10quantifierLb0EjED2Ev.exit:          ; preds = %_ZN12smt_renamingD2Ev.exit, %30
  call void @llvm.lifetime.end.p0(i64 8, ptr nonnull %5) #24
  ret void

35:                                               ; preds = %4
  %36 = landingpad { ptr, i32 }
          cleanup
  br label %42

37:                                               ; preds = %8
  %38 = landingpad { ptr, i32 }
          cleanup
  br label %41

39:                                               ; preds = %14
  %40 = landingpad { ptr, i32 }
          cleanup
  call void @_ZN11smt_printerD2Ev(ptr noundef nonnull align 8 dereferenceable(424) %7) #24
  br label %41

41:                                               ; preds = %39, %37
  %.pn = phi { ptr, i32 } [ %40, %39 ], [ %38, %37 ]
  call void @llvm.lifetime.end.p0(i64 424, ptr nonnull %7) #24
  call void @_ZN12smt_renamingD2Ev(ptr noundef nonnull align 8 dereferenceable(48) %6) #24
  br label %42

42:                                               ; preds = %41, %35
  %.pn.pn = phi { ptr, i32 } [ %.pn, %41 ], [ %36, %35 ]
  call void @llvm.lifetime.end.p0(i64 48, ptr nonnull %6) #24
  call void @_ZN6vectorIP10quantifierLb0EjED2Ev(ptr noundef nonnull align 8 dereferenceable(8) %5) #24
  call void @llvm.lifetime.end.p0(i64 8, ptr nonnull %5) #24
  resume { ptr, i32 } %.pn.pn
}